; Function Attrs: nofree norecurse nosync nounwind memory(read, inaccessiblemem: none) uwtable
define i32 @Fxu_SingleCountCoincidence(ptr noundef readnone captures(none) %0, ptr noundef readonly captures(none) %1, ptr noundef readonly captures(none) %2) local_unnamed_addr #4 {
  %4 = getelementptr inbounds nuw i8, ptr %1, i64 24
  %5 = getelementptr inbounds nuw i8, ptr %2, i64 24
  br label %.outer.outer

.outer.outer:                                     ; preds = %3, %27
  %.032.ph.ph.in = phi ptr [ %4, %3 ], [ %28, %27 ]
  %.030.ph.ph.in = phi ptr [ %5, %3 ], [ %29, %27 ]
  %.0.ph.ph = phi i32 [ 0, %3 ], [ %30, %27 ]
  %.030.ph.ph = load ptr, ptr %.030.ph.ph.in, align 8, !tbaa !31
  %.032.ph.ph = load ptr, ptr %.032.ph.ph.in, align 8, !tbaa !31
  br label %.outer

.outer:                                           ; preds = %.outer.backedge, %.outer.outer
  %.032.ph = phi ptr [ %.032.ph.ph, %.outer.outer ], [ %.032.ph.be, %.outer.backedge ]
  %.030.ph = phi ptr [ %.030.ph.ph, %.outer.outer ], [ %.030.ph.be, %.outer.backedge ]
  %6 = icmp ne ptr %.032.ph, null
  %7 = getelementptr inbounds nuw i8, ptr %.032.ph, i64 8
  %8 = getelementptr inbounds nuw i8, ptr %.032.ph, i64 4
  br label %9

9:                                                ; preds = %.backedge, %.outer
  %.030 = phi ptr [ %.030.ph, %.outer ], [ %.030.be, %.backedge ]
  %10 = icmp ne ptr %.030, null
  %or.cond = select i1 %6, i1 %10, i1 false
  br i1 %or.cond, label %11, label %41

11:                                               ; preds = %9
  %12 = load ptr, ptr %7, align 8, !tbaa !42
  %13 = getelementptr inbounds nuw i8, ptr %12, i64 16
  %14 = load ptr, ptr %13, align 8, !tbaa !43
  %15 = load i32, ptr %14, align 8, !tbaa !45
  %16 = getelementptr inbounds nuw i8, ptr %.030, i64 8
  %17 = load ptr, ptr %16, align 8, !tbaa !42
  %18 = getelementptr inbounds nuw i8, ptr %17, i64 16
  %19 = load ptr, ptr %18, align 8, !tbaa !43
  %20 = load i32, ptr %19, align 8, !tbaa !45
  %21 = icmp eq i32 %15, %20
  br i1 %21, label %22, label %36

22:                                               ; preds = %11
  %23 = load i32, ptr %8, align 4, !tbaa !46
  %24 = getelementptr inbounds nuw i8, ptr %.030, i64 4
  %25 = load i32, ptr %24, align 4, !tbaa !46
  %26 = icmp eq i32 %23, %25
  br i1 %26, label %27, label %31

27:                                               ; preds = %22
  %28 = getelementptr inbounds nuw i8, ptr %.032.ph, i64 48
  %29 = getelementptr inbounds nuw i8, ptr %.030, i64 48
  %30 = add nuw nsw i32 %.0.ph.ph, 1
  br label %.outer.outer

31:                                               ; preds = %22
  %32 = icmp slt i32 %23, %25
  br i1 %32, label %33, label %.backedge

33:                                               ; preds = %31
  %34 = getelementptr inbounds nuw i8, ptr %.032.ph, i64 48
  %35 = load ptr, ptr %34, align 8, !tbaa !47
  br label %.outer.backedge

.outer.backedge:                                  ; preds = %33, %38, %47, %43
  %.032.ph.be = phi ptr [ %45, %43 ], [ null, %47 ], [ %40, %38 ], [ %35, %33 ]
  %.030.ph.be = phi ptr [ null, %43 ], [ %49, %47 ], [ %.030, %38 ], [ %.030, %33 ]
  br label %.outer

.backedge:                                        ; preds = %36, %31
  %.030.be.in = getelementptr inbounds nuw i8, ptr %.030, i64 48
  %.030.be = load ptr, ptr %.030.be.in, align 8, !tbaa !47
  br label %9

36:                                               ; preds = %11
  %37 = icmp slt i32 %15, %20
  br i1 %37, label %38, label %.backedge

38:                                               ; preds = %36
  %39 = getelementptr inbounds nuw i8, ptr %.032.ph, i64 48
  %40 = load ptr, ptr %39, align 8, !tbaa !47
  br label %.outer.backedge

41:                                               ; preds = %9
  %42 = icmp eq ptr %.032.ph, null
  %or.cond3 = select i1 %42, i1 true, i1 %10
  br i1 %or.cond3, label %46, label %43

43:                                               ; preds = %41
  %44 = getelementptr inbounds nuw i8, ptr %.032.ph, i64 48
  %45 = load ptr, ptr %44, align 8, !tbaa !47
  br label %.outer.backedge

46:                                               ; preds = %41
  %or.cond5 = select i1 %42, i1 %10, i1 false
  br i1 %or.cond5, label %47, label %50

47:                                               ; preds = %46
  %48 = getelementptr inbounds nuw i8, ptr %.030, i64 48
  %49 = load ptr, ptr %48, align 8, !tbaa !47
  br label %.outer.backedge

50:                                               ; preds = %46
  ret i32 %.0.ph.ph
}